; Function Attrs: null_pointer_is_valid sspstrong uwtable
define internal signext i16 @dissect_mih_evt_cfg_info(ptr noundef %0, i16 noundef signext %1, ptr noundef %2) #0 {
  %4 = sext i16 %1 to i32
  %5 = tail call zeroext i8 @tvb_get_uint8(ptr noundef %0, i32 noundef %4)
  %6 = add i16 %1, 1
  %.not.i = icmp eq i8 %5, 0
  br i1 %.not.i, label %dissect_mih_list.exit, label %.lr.ph.i

.lr.ph.i:                                         ; preds = %3, %dissect_link_det_cfg.exit
  %.012.i = phi i16 [ %39, %dissect_link_det_cfg.exit ], [ %6, %3 ]
  %.01011.i = phi i8 [ %40, %dissect_link_det_cfg.exit ], [ 0, %3 ]
  %7 = sext i16 %.012.i to i32
  %8 = tail call zeroext i8 @tvb_get_uint8(ptr noundef %0, i32 noundef %7)
  %.not.i13 = icmp eq i8 %8, 0
  br i1 %.not.i13, label %19, label %9

9:                                                ; preds = %.lr.ph.i
  %10 = add nsw i32 %7, 1
  %11 = tail call zeroext i8 @tvb_get_uint8(ptr noundef %0, i32 noundef %10)
  %12 = load i32, ptr @hf_network_id, align 4
  %13 = add nsw i32 %7, 2
  %14 = zext i8 %11 to i32
  %15 = tail call ptr @proto_tree_add_item(ptr noundef %2, i32 noundef %12, ptr noundef %0, i32 noundef %13, i32 noundef %14, i32 noundef 0)
  %16 = zext i8 %11 to i16
  %17 = add i16 %.012.i, 1
  %18 = add i16 %17, %16
  br label %19

19:                                               ; preds = %9, %.lr.ph.i
  %.0.i = phi i16 [ %18, %9 ], [ %.012.i, %.lr.ph.i ]
  %20 = add i16 %.0.i, 1
  %21 = sext i16 %20 to i32
  %22 = tail call zeroext i8 @tvb_get_uint8(ptr noundef %0, i32 noundef %21)
  %.not29.i = icmp eq i8 %22, 0
  br i1 %.not29.i, label %30, label %23

23:                                               ; preds = %19
  %24 = add nsw i32 %21, 1
  %25 = tail call zeroext i8 @tvb_get_uint8(ptr noundef %0, i32 noundef %24)
  %.not30.i = icmp eq i8 %25, 0
  %26 = add nsw i32 %21, 2
  %hf_sig_strength_dbm.val.i = load i32, ptr @hf_sig_strength_dbm, align 4
  %hf_sig_strength_per.val.i = load i32, ptr @hf_sig_strength_per, align 4
  %27 = select i1 %.not30.i, i32 %hf_sig_strength_dbm.val.i, i32 %hf_sig_strength_per.val.i
  %28 = tail call ptr @proto_tree_add_item(ptr noundef %2, i32 noundef %27, ptr noundef %0, i32 noundef %26, i32 noundef 1, i32 noundef 0)
  %29 = add i16 %.0.i, 3
  br label %30

30:                                               ; preds = %23, %19
  %.1.i = phi i16 [ %29, %23 ], [ %20, %19 ]
  %31 = add i16 %.1.i, 1
  %32 = sext i16 %31 to i32
  %33 = tail call zeroext i8 @tvb_get_uint8(ptr noundef %0, i32 noundef %32)
  %.not31.i = icmp eq i8 %33, 0
  br i1 %.not31.i, label %dissect_link_det_cfg.exit, label %34

34:                                               ; preds = %30
  %35 = load i32, ptr @hf_link_data_rate, align 4
  %36 = add nsw i32 %32, 1
  %37 = tail call ptr @proto_tree_add_item(ptr noundef %2, i32 noundef %35, ptr noundef %0, i32 noundef %36, i32 noundef 4, i32 noundef 0)
  %38 = add i16 %.1.i, 5
  br label %dissect_link_det_cfg.exit

dissect_link_det_cfg.exit:                        ; preds = %30, %34
  %.2.i = phi i16 [ %38, %34 ], [ %31, %30 ]
  %39 = add i16 %.2.i, 1
  %40 = add nuw i8 %.01011.i, 1
  %exitcond.not.i = icmp eq i8 %40, %5
  br i1 %exitcond.not.i, label %dissect_mih_list.exit, label %.lr.ph.i, !llvm.loop !11

dissect_mih_list.exit:                            ; preds = %dissect_link_det_cfg.exit, %3
  %.0.lcssa.i = phi i16 [ %6, %3 ], [ %39, %dissect_link_det_cfg.exit ]
  %41 = sext i16 %.0.lcssa.i to i32
  %42 = tail call zeroext i8 @tvb_get_uint8(ptr noundef %0, i32 noundef %41)
  %43 = add i16 %.0.lcssa.i, 1
  %.not.i6 = icmp eq i8 %42, 0
  br i1 %.not.i6, label %dissect_mih_list.exit12, label %.lr.ph.i7

.lr.ph.i7:                                        ; preds = %dissect_mih_list.exit, %.lr.ph.i7
  %.012.i8 = phi i16 [ %44, %.lr.ph.i7 ], [ %43, %dissect_mih_list.exit ]
  %.01011.i9 = phi i8 [ %45, %.lr.ph.i7 ], [ 0, %dissect_mih_list.exit ]
  %44 = tail call signext i16 @dissect_link_cfg_param(ptr noundef %0, i16 noundef signext %.012.i8, ptr noundef %2)
  %45 = add nuw i8 %.01011.i9, 1
  %exitcond.not.i10 = icmp eq i8 %45, %42
  br i1 %exitcond.not.i10, label %dissect_mih_list.exit12, label %.lr.ph.i7, !llvm.loop !11

dissect_mih_list.exit12:                          ; preds = %.lr.ph.i7, %dissect_mih_list.exit
  %.0.lcssa.i11 = phi i16 [ %43, %dissect_mih_list.exit ], [ %44, %.lr.ph.i7 ]
  ret i16 %.0.lcssa.i11
}